; ModuleID = '39/2075.c'
source_filename = "39/2075.c"
target datalayout = "e-m:e-p270:32:32-p271:32:32-p272:64:64-i64:64-f80:128-n8:16:32:64-S128"
target triple = "x86_64-pc-linux-gnu"

%struct.anon = type { [20 x i8], i32, i32, i8, i8, i32 }

@.str = private unnamed_addr constant [3 x i8] c"%d\00", align 1
@.str.1 = private unnamed_addr constant [18 x i8] c"%s %d %d %c %c %d\00", align 1
@.str.2 = private unnamed_addr constant [10 x i8] c"%s\0A%d\0A%d\0A\00", align 1

; Function Attrs: noinline nounwind uwtable
define dso_local i32 @main() #0 {
  %1 = alloca i32, align 4
  %2 = alloca i32, align 4
  %3 = alloca i32, align 4
  %4 = alloca i32, align 4
  %5 = alloca [20 x i8], align 16
  %6 = alloca [101 x %struct.anon], align 16
  %7 = alloca [101 x i32], align 16
  %8 = alloca i32, align 4
  store i32 0, i32* %1, align 4
  %9 = call i32 (i8*, ...) @__isoc99_scanf(i8* getelementptr inbounds ([3 x i8], [3 x i8]* @.str, i64 0, i64 0), i32* %2)
  store i32 1, i32* %4, align 4
  br label %10

10:                                               ; preds = %40, %0
  %11 = load i32, i32* %4, align 4
  %12 = load i32, i32* %2, align 4
  %13 = icmp sle i32 %11, %12
  br i1 %13, label %14, label %43

14:                                               ; preds = %10
  %15 = load i32, i32* %4, align 4
  %16 = sext i32 %15 to i64
  %17 = getelementptr inbounds [101 x %struct.anon], [101 x %struct.anon]* %6, i64 0, i64 %16
  %18 = getelementptr inbounds %struct.anon, %struct.anon* %17, i32 0, i32 0
  %19 = load i32, i32* %4, align 4
  %20 = sext i32 %19 to i64
  %21 = getelementptr inbounds [101 x %struct.anon], [101 x %struct.anon]* %6, i64 0, i64 %20
  %22 = getelementptr inbounds %struct.anon, %struct.anon* %21, i32 0, i32 1
  %23 = load i32, i32* %4, align 4
  %24 = sext i32 %23 to i64
  %25 = getelementptr inbounds [101 x %struct.anon], [101 x %struct.anon]* %6, i64 0, i64 %24
  %26 = getelementptr inbounds %struct.anon, %struct.anon* %25, i32 0, i32 2
  %27 = load i32, i32* %4, align 4
  %28 = sext i32 %27 to i64
  %29 = getelementptr inbounds [101 x %struct.anon], [101 x %struct.anon]* %6, i64 0, i64 %28
  %30 = getelementptr inbounds %struct.anon, %struct.anon* %29, i32 0, i32 3
  %31 = load i32, i32* %4, align 4
  %32 = sext i32 %31 to i64
  %33 = getelementptr inbounds [101 x %struct.anon], [101 x %struct.anon]* %6, i64 0, i64 %32
  %34 = getelementptr inbounds %struct.anon, %struct.anon* %33, i32 0, i32 4
  %35 = load i32, i32* %4, align 4
  %36 = sext i32 %35 to i64
  %37 = getelementptr inbounds [101 x %struct.anon], [101 x %struct.anon]* %6, i64 0, i64 %36
  %38 = getelementptr inbounds %struct.anon, %struct.anon* %37, i32 0, i32 5
  %39 = call i32 (i8*, ...) @__isoc99_scanf(i8* getelementptr inbounds ([18 x i8], [18 x i8]* @.str.1, i64 0, i64 0), [20 x i8]* %18, i32* %22, i32* %26, i8* %30, i8* %34, i32* %38)
  br label %40

40:                                               ; preds = %14
  %41 = load i32, i32* %4, align 4
  %42 = add nsw i32 %41, 1
  store i32 %42, i32* %4, align 4
  br label %10

43:                                               ; preds = %10
  store i32 0, i32* %8, align 4
  store i32 1, i32* %4, align 4
  br label %44

44:                                               ; preds = %153, %43
  %45 = load i32, i32* %4, align 4
  %46 = load i32, i32* %2, align 4
  %47 = icmp sle i32 %45, %46
  br i1 %47, label %48, label %156

48:                                               ; preds = %44
  %49 = load i32, i32* %4, align 4
  %50 = sext i32 %49 to i64
  %51 = getelementptr inbounds [101 x i32], [101 x i32]* %7, i64 0, i64 %50
  store i32 0, i32* %51, align 4
  %52 = load i32, i32* %4, align 4
  %53 = sext i32 %52 to i64
  %54 = getelementptr inbounds [101 x %struct.anon], [101 x %struct.anon]* %6, i64 0, i64 %53
  %55 = getelementptr inbounds %struct.anon, %struct.anon* %54, i32 0, i32 1
  %56 = load i32, i32* %55, align 4
  %57 = icmp sgt i32 %56, 80
  br i1 %57, label %58, label %71

58:                                               ; preds = %48
  %59 = load i32, i32* %4, align 4
  %60 = sext i32 %59 to i64
  %61 = getelementptr inbounds [101 x %struct.anon], [101 x %struct.anon]* %6, i64 0, i64 %60
  %62 = getelementptr inbounds %struct.anon, %struct.anon* %61, i32 0, i32 5
  %63 = load i32, i32* %62, align 4
  %64 = icmp sge i32 %63, 1
  br i1 %64, label %65, label %71

65:                                               ; preds = %58
  %66 = load i32, i32* %4, align 4
  %67 = sext i32 %66 to i64
  %68 = getelementptr inbounds [101 x i32], [101 x i32]* %7, i64 0, i64 %67
  %69 = load i32, i32* %68, align 4
  %70 = add nsw i32 %69, 8000
  store i32 %70, i32* %68, align 4
  br label %71

71:                                               ; preds = %65, %58, %48
  %72 = load i32, i32* %4, align 4
  %73 = sext i32 %72 to i64
  %74 = getelementptr inbounds [101 x %struct.anon], [101 x %struct.anon]* %6, i64 0, i64 %73
  %75 = getelementptr inbounds %struct.anon, %struct.anon* %74, i32 0, i32 1
  %76 = load i32, i32* %75, align 4
  %77 = icmp sgt i32 %76, 85
  br i1 %77, label %78, label %91

78:                                               ; preds = %71
  %79 = load i32, i32* %4, align 4
  %80 = sext i32 %79 to i64
  %81 = getelementptr inbounds [101 x %struct.anon], [101 x %struct.anon]* %6, i64 0, i64 %80
  %82 = getelementptr inbounds %struct.anon, %struct.anon* %81, i32 0, i32 2
  %83 = load i32, i32* %82, align 4
  %84 = icmp sgt i32 %83, 80
  br i1 %84, label %85, label %91

85:                                               ; preds = %78
  %86 = load i32, i32* %4, align 4
  %87 = sext i32 %86 to i64
  %88 = getelementptr inbounds [101 x i32], [101 x i32]* %7, i64 0, i64 %87
  %89 = load i32, i32* %88, align 4
  %90 = add nsw i32 %89, 4000
  store i32 %90, i32* %88, align 4
  br label %91

91:                                               ; preds = %85, %78, %71
  %92 = load i32, i32* %4, align 4
  %93 = sext i32 %92 to i64
  %94 = getelementptr inbounds [101 x %struct.anon], [101 x %struct.anon]* %6, i64 0, i64 %93
  %95 = getelementptr inbounds %struct.anon, %struct.anon* %94, i32 0, i32 1
  %96 = load i32, i32* %95, align 4
  %97 = icmp sgt i32 %96, 90
  br i1 %97, label %98, label %104

98:                                               ; preds = %91
  %99 = load i32, i32* %4, align 4
  %100 = sext i32 %99 to i64
  %101 = getelementptr inbounds [101 x i32], [101 x i32]* %7, i64 0, i64 %100
  %102 = load i32, i32* %101, align 4
  %103 = add nsw i32 %102, 2000
  store i32 %103, i32* %101, align 4
  br label %104

104:                                              ; preds = %98, %91
  %105 = load i32, i32* %4, align 4
  %106 = sext i32 %105 to i64
  %107 = getelementptr inbounds [101 x %struct.anon], [101 x %struct.anon]* %6, i64 0, i64 %106
  %108 = getelementptr inbounds %struct.anon, %struct.anon* %107, i32 0, i32 1
  %109 = load i32, i32* %108, align 4
  %110 = icmp sgt i32 %109, 85
  br i1 %110, label %111, label %125

111:                                              ; preds = %104
  %112 = load i32, i32* %4, align 4
  %113 = sext i32 %112 to i64
  %114 = getelementptr inbounds [101 x %struct.anon], [101 x %struct.anon]* %6, i64 0, i64 %113
  %115 = getelementptr inbounds %struct.anon, %struct.anon* %114, i32 0, i32 4
  %116 = load i8, i8* %115, align 1
  %117 = sext i8 %116 to i32
  %118 = icmp eq i32 %117, 89
  br i1 %118, label %119, label %125

119:                                              ; preds = %111
  %120 = load i32, i32* %4, align 4
  %121 = sext i32 %120 to i64
  %122 = getelementptr inbounds [101 x i32], [101 x i32]* %7, i64 0, i64 %121
  %123 = load i32, i32* %122, align 4
  %124 = add nsw i32 %123, 1000
  store i32 %124, i32* %122, align 4
  br label %125

125:                                              ; preds = %119, %111, %104
  %126 = load i32, i32* %4, align 4
  %127 = sext i32 %126 to i64
  %128 = getelementptr inbounds [101 x %struct.anon], [101 x %struct.anon]* %6, i64 0, i64 %127
  %129 = getelementptr inbounds %struct.anon, %struct.anon* %128, i32 0, i32 2
  %130 = load i32, i32* %129, align 4
  %131 = icmp sgt i32 %130, 80
  br i1 %131, label %132, label %146

132:                                              ; preds = %125
  %133 = load i32, i32* %4, align 4
  %134 = sext i32 %133 to i64
  %135 = getelementptr inbounds [101 x %struct.anon], [101 x %struct.anon]* %6, i64 0, i64 %134
  %136 = getelementptr inbounds %struct.anon, %struct.anon* %135, i32 0, i32 3
  %137 = load i8, i8* %136, align 4
  %138 = sext i8 %137 to i32
  %139 = icmp eq i32 %138, 89
  br i1 %139, label %140, label %146

140:                                              ; preds = %132
  %141 = load i32, i32* %4, align 4
  %142 = sext i32 %141 to i64
  %143 = getelementptr inbounds [101 x i32], [101 x i32]* %7, i64 0, i64 %142
  %144 = load i32, i32* %143, align 4
  %145 = add nsw i32 %144, 850
  store i32 %145, i32* %143, align 4
  br label %146

146:                                              ; preds = %140, %132, %125
  %147 = load i32, i32* %8, align 4
  %148 = load i32, i32* %4, align 4
  %149 = sext i32 %148 to i64
  %150 = getelementptr inbounds [101 x i32], [101 x i32]* %7, i64 0, i64 %149
  %151 = load i32, i32* %150, align 4
  %152 = add nsw i32 %147, %151
  store i32 %152, i32* %8, align 4
  br label %153

153:                                              ; preds = %146
  %154 = load i32, i32* %4, align 4
  %155 = add nsw i32 %154, 1
  store i32 %155, i32* %4, align 4
  br label %44

156:                                              ; preds = %44
  %157 = getelementptr inbounds [101 x i32], [101 x i32]* %7, i64 0, i64 1
  %158 = load i32, i32* %157, align 4
  store i32 %158, i32* %3, align 4
  %159 = getelementptr inbounds [20 x i8], [20 x i8]* %5, i64 0, i64 0
  %160 = getelementptr inbounds [101 x %struct.anon], [101 x %struct.anon]* %6, i64 0, i64 1
  %161 = getelementptr inbounds %struct.anon, %struct.anon* %160, i32 0, i32 0
  %162 = getelementptr inbounds [20 x i8], [20 x i8]* %161, i64 0, i64 0
  %163 = call i8* @strcpy(i8* %159, i8* %162) #3
  store i32 2, i32* %4, align 4
  br label %164

164:                                              ; preds = %188, %156
  %165 = load i32, i32* %4, align 4
  %166 = load i32, i32* %2, align 4
  %167 = icmp sle i32 %165, %166
  br i1 %167, label %168, label %191

168:                                              ; preds = %164
  %169 = load i32, i32* %4, align 4
  %170 = sext i32 %169 to i64
  %171 = getelementptr inbounds [101 x i32], [101 x i32]* %7, i64 0, i64 %170
  %172 = load i32, i32* %171, align 4
  %173 = load i32, i32* %3, align 4
  %174 = icmp sgt i32 %172, %173
  br i1 %174, label %175, label %187

175:                                              ; preds = %168
  %176 = load i32, i32* %4, align 4
  %177 = sext i32 %176 to i64
  %178 = getelementptr inbounds [101 x i32], [101 x i32]* %7, i64 0, i64 %177
  %179 = load i32, i32* %178, align 4
  store i32 %179, i32* %3, align 4
  %180 = getelementptr inbounds [20 x i8], [20 x i8]* %5, i64 0, i64 0
  %181 = load i32, i32* %4, align 4
  %182 = sext i32 %181 to i64
  %183 = getelementptr inbounds [101 x %struct.anon], [101 x %struct.anon]* %6, i64 0, i64 %182
  %184 = getelementptr inbounds %struct.anon, %struct.anon* %183, i32 0, i32 0
  %185 = getelementptr inbounds [20 x i8], [20 x i8]* %184, i64 0, i64 0
  %186 = call i8* @strcpy(i8* %180, i8* %185) #3
  br label %187

187:                                              ; preds = %175, %168
  br label %188

188:                                              ; preds = %187
  %189 = load i32, i32* %4, align 4
  %190 = add nsw i32 %189, 1
  store i32 %190, i32* %4, align 4
  br label %164

191:                                              ; preds = %164
  %192 = getelementptr inbounds [20 x i8], [20 x i8]* %5, i64 0, i64 0
  %193 = load i32, i32* %3, align 4
  %194 = load i32, i32* %8, align 4
  %195 = call i32 (i8*, ...) @printf(i8* getelementptr inbounds ([10 x i8], [10 x i8]* @.str.2, i64 0, i64 0), i8* %192, i32 %193, i32 %194)
  ret i32 0
}

declare dso_local i32 @__isoc99_scanf(i8*, ...) #1

; Function Attrs: nounwind
declare dso_local i8* @strcpy(i8*, i8*) #2

declare dso_local i32 @printf(i8*, ...) #1


!llvm.module.flags = !{!0}
!llvm.ident = !{!1}

!0 = !{i32 1, !"wchar_size", i32 4}
!1 = !{!"clang version 10.0.0-4ubuntu1 "}
